target datalayout = "e-m:e-p270:32:32-p271:32:32-p272:64:64-i64:64-i128:128-f80:128-n8:16:32:64-S128"
target triple = "x86_64-pc-linux-gnu"

%struct.AVRational = type { i32, i32 }
%struct.AVCodecContext = type { ptr, i32, i32, ptr, i32, i32, ptr, ptr, ptr, i64, i32, i32, ptr, i32, %struct.AVRational, %struct.AVRational, %struct.AVRational, i32, i32, i32, i32, i32, %struct.AVRational, i32, i32, i32, i32, i32, i32, i32, i32, i32, i32, i32, ptr, ptr, i32, float, float, float, float, float, float, float, float, float, i32, i32, i32, i32, i32, i32, i32, i32, i32, i32, i32, i32, ptr, ptr, ptr, i32, i32, i32, i32, i32, i32, i32, i32, i32, i32, %struct.AVChannelLayout, i32, i32, i32, i32, i32, i32, i32, i32, ptr, i32, i32, i32, float, float, i32, i32, i32, i32, i32, ptr, i64, i64, float, float, i32, i32, ptr, ptr, i32, i32, i32, i32, i32, ptr, ptr, ptr, ptr, i32, i32, [8 x i64], i32, i32, i32, i32, i32, i32, i32, ptr, ptr, i32, i32, i32, i32, i32, i32, i32, i32, i32, i32, ptr, ptr, i32, i32, ptr, ptr, ptr, ptr, i32, i32, i64, i32, i32, i64, ptr, i64, ptr, i32, ptr, i32 }
%struct.AVChannelLayout = type { i32, i32, %union.anon.1, ptr }
%union.anon.1 = type { i64 }
%struct.CCaptionSubContext = type { ptr, ptr, i32, i32, i32, [2 x %struct.Screen], i32, i8, i8, i8, i8, i8, i8, [2 x %struct.AVBPrint], i32, i32, i32, i32, [2 x i64], i32, i64, [2 x i8], i32 }
%struct.Screen = type { [16 x [33 x i8]], [16 x [33 x i8]], [16 x [33 x i8]], [16 x [33 x i8]], [16 x [33 x i8]], i16 }
%struct.AVBPrint = type { ptr, i32, i32, i32, [1 x i8], [1000 x i8] }

@.str.15 = private unnamed_addr constant [10 x i8] c"Monospace\00", align 1

; Function Attrs: cold nounwind optsize uwtable
define internal i32 @init_decoder(ptr noundef %0) #0 {
  %2 = alloca ptr, align 8
  %3 = alloca ptr, align 8
  store ptr %0, ptr %2, align 8, !tbaa !4
  call void @llvm.lifetime.start.p0(i64 8, ptr %3) #8
  %4 = load ptr, ptr %2, align 8, !tbaa !4
  %5 = getelementptr inbounds nuw %struct.AVCodecContext, ptr %4, i32 0, i32 6
  %6 = load ptr, ptr %5, align 8, !tbaa !9
  store ptr %6, ptr %3, align 8, !tbaa !29
  %7 = load ptr, ptr %2, align 8, !tbaa !4
  %8 = load ptr, ptr %3, align 8, !tbaa !29
  %9 = getelementptr inbounds nuw %struct.CCaptionSubContext, ptr %8, i32 0, i32 1
  store ptr %7, ptr %9, align 8, !tbaa !31
  %10 = load ptr, ptr %3, align 8, !tbaa !29
  %11 = getelementptr inbounds nuw %struct.CCaptionSubContext, ptr %10, i32 0, i32 13
  %12 = getelementptr inbounds [2 x %struct.AVBPrint], ptr %11, i64 0, i64 0
  call void @av_bprint_init(ptr noundef %12, i32 noundef 0, i32 noundef -1)
  %13 = load ptr, ptr %3, align 8, !tbaa !29
  %14 = getelementptr inbounds nuw %struct.CCaptionSubContext, ptr %13, i32 0, i32 13
  %15 = getelementptr inbounds [2 x %struct.AVBPrint], ptr %14, i64 0, i64 1
  call void @av_bprint_init(ptr noundef %15, i32 noundef 0, i32 noundef -1)
  %16 = load ptr, ptr %3, align 8, !tbaa !29
  %17 = getelementptr inbounds nuw %struct.CCaptionSubContext, ptr %16, i32 0, i32 17
  store i32 2, ptr %17, align 4, !tbaa !33
  %18 = load ptr, ptr %3, align 8, !tbaa !29
  %19 = getelementptr inbounds nuw %struct.CCaptionSubContext, ptr %18, i32 0, i32 10
  store i8 8, ptr %19, align 1, !tbaa !34
  %20 = load ptr, ptr %3, align 8, !tbaa !29
  %21 = getelementptr inbounds nuw %struct.CCaptionSubContext, ptr %20, i32 0, i32 16
  store i32 2, ptr %21, align 8, !tbaa !35
  %22 = load ptr, ptr %3, align 8, !tbaa !29
  %23 = getelementptr inbounds nuw %struct.CCaptionSubContext, ptr %22, i32 0, i32 7
  store i8 10, ptr %23, align 4, !tbaa !36
  %24 = load ptr, ptr %2, align 8, !tbaa !4
  %25 = call i32 @ff_ass_subtitle_header(ptr noundef %24, ptr noundef @.str.15, i32 noundef 16, i32 noundef 16777215, i32 noundef 0, i32 noundef 0, i32 noundef 0, i32 noundef 0, i32 noundef 3, i32 noundef 2)
  call void @llvm.lifetime.end.p0(i64 8, ptr %3) #8
  ret i32 %25
}