; Function Attrs: cold nounwind optsize uwtable
define internal i32 @init_decoder(ptr noundef %0) #0 {
  %2 = getelementptr inbounds nuw i8, ptr %0, i64 32
  %3 = load ptr, ptr %2, align 8, !tbaa !4
  %4 = getelementptr inbounds nuw i8, ptr %3, i64 8
  store ptr %0, ptr %4, align 8, !tbaa !27
  %5 = getelementptr inbounds nuw i8, ptr %3, i64 5328
  tail call void @av_bprint_init(ptr noundef nonnull %5, i32 noundef 0, i32 noundef -1) #9
  %6 = getelementptr inbounds nuw i8, ptr %3, i64 6352
  tail call void @av_bprint_init(ptr noundef nonnull %6, i32 noundef 0, i32 noundef -1) #9
  %7 = getelementptr inbounds nuw i8, ptr %3, i64 7388
  store i32 2, ptr %7, align 4, !tbaa !29
  %8 = getelementptr inbounds nuw i8, ptr %3, i64 5319
  store i8 8, ptr %8, align 1, !tbaa !30
  %9 = getelementptr inbounds nuw i8, ptr %3, i64 7384
  store i32 2, ptr %9, align 8, !tbaa !31
  %10 = getelementptr inbounds nuw i8, ptr %3, i64 5316
  store i8 10, ptr %10, align 4, !tbaa !32
  %11 = tail call i32 @ff_ass_subtitle_header(ptr noundef %0, ptr noundef nonnull @.str.15, i32 noundef 16, i32 noundef 16777215, i32 noundef 0, i32 noundef 0, i32 noundef 0, i32 noundef 0, i32 noundef 3, i32 noundef 2) #9
  ret i32 %11
}